; Function Attrs: inlinehint nounwind uwtable
define hidden ptr @_mi_heap_malloc_zero(ptr noundef %0, i64 noundef %1, i1 noundef zeroext %2) local_unnamed_addr #0 {
  %4 = icmp ult i64 %1, 1025
  br i1 %4, label %5, label %29, !prof !8

5:                                                ; preds = %3
  %6 = add nuw nsw i64 %1, 7
  %7 = lshr i64 %6, 3
  %8 = getelementptr inbounds nuw i8, ptr %0, i64 232
  %9 = getelementptr inbounds nuw [129 x ptr], ptr %8, i64 0, i64 %7
  %10 = load ptr, ptr %9, align 8, !tbaa !9
  %11 = getelementptr inbounds nuw i8, ptr %10, i64 16
  %12 = load ptr, ptr %11, align 8, !tbaa !11
  %13 = icmp eq ptr %12, null
  br i1 %13, label %14, label %16, !prof !18

14:                                               ; preds = %5
  %15 = tail call noalias ptr @_mi_malloc_generic(ptr noundef nonnull %0, i64 noundef %1, i1 noundef zeroext %2, i64 noundef 0) #19
  br label %_mi_heap_malloc_zero_ex.exit

16:                                               ; preds = %5
  %.val.i.i.i = load i64, ptr %12, align 8, !tbaa !19
  %17 = inttoptr i64 %.val.i.i.i to ptr
  store ptr %17, ptr %11, align 8, !tbaa !11
  %18 = getelementptr inbounds nuw i8, ptr %10, i64 32
  %19 = load i16, ptr %18, align 8, !tbaa !21
  %20 = add i16 %19, 1
  store i16 %20, ptr %18, align 8, !tbaa !21
  br i1 %2, label %21, label %_mi_heap_malloc_zero_ex.exit, !prof !18

21:                                               ; preds = %16
  %22 = getelementptr inbounds nuw i8, ptr %10, i64 15
  %23 = load i8, ptr %22, align 1
  %24 = and i8 %23, 1
  %.not.i.i.i = icmp eq i8 %24, 0
  br i1 %.not.i.i.i, label %26, label %25

25:                                               ; preds = %21
  store i64 0, ptr %12, align 8, !tbaa !19
  br label %_mi_heap_malloc_zero_ex.exit

26:                                               ; preds = %21
  %27 = getelementptr inbounds nuw i8, ptr %10, i64 40
  %28 = load i64, ptr %27, align 8, !tbaa !22
  call void @llvm.assume(i1 true) [ "align"(ptr %12, i64 8) ]
  tail call void @llvm.memset.p0.i64(ptr nonnull align 8 %12, i8 0, i64 %28, i1 false)
  br label %_mi_heap_malloc_zero_ex.exit

29:                                               ; preds = %3
  %30 = tail call noalias ptr @_mi_malloc_generic(ptr noundef %0, i64 noundef %1, i1 noundef zeroext %2, i64 noundef 0) #19
  br label %_mi_heap_malloc_zero_ex.exit

_mi_heap_malloc_zero_ex.exit:                     ; preds = %14, %16, %25, %26, %29
  %.0.i = phi ptr [ %30, %29 ], [ %15, %14 ], [ %12, %25 ], [ %12, %26 ], [ %12, %16 ]
  ret ptr %.0.i
}